target datalayout = "e-m:e-p270:32:32-p271:32:32-p272:64:64-i64:64-i128:128-f80:128-n8:16:32:64-S128"
target triple = "x86_64-pc-linux-gnu"

%struct._zval_struct = type { %union._zend_value, %union.anon, %union.anon.2 }
%union._zend_value = type { i64 }
%union.anon = type { i32 }
%union.anon.2 = type { i32 }
%struct._zend_refcounted_h = type { i32, %union.anon.3 }
%union.anon.3 = type { i32 }
%struct._spl_array_object = type { %struct._zval_struct, i32, i32, i8, i8, ptr, ptr, ptr, ptr, ptr, ptr, ptr, %struct._zend_object }
%struct._zend_object = type { %struct._zend_refcounted_h, i32, ptr, ptr, ptr, [1 x %struct._zval_struct] }
%struct._zend_string = type { %struct._zend_refcounted_h, i64, i64, [1 x i8] }

; Function Attrs: nounwind uwtable
define internal void @spl_array_write_dimension(ptr noundef %0, ptr noundef %1, ptr noundef %2) #0 {
  %4 = alloca ptr, align 8
  %5 = alloca ptr, align 8
  %6 = alloca ptr, align 8
  store ptr %0, ptr %4, align 8
  store ptr %1, ptr %5, align 8
  store ptr %2, ptr %6, align 8
  %7 = load ptr, ptr %4, align 8
  %8 = load ptr, ptr %5, align 8
  %9 = load ptr, ptr %6, align 8
  call void @spl_array_write_dimension_ex(i32 noundef 1, ptr noundef %7, ptr noundef %8, ptr noundef %9)
  ret void
}

; Function Attrs: nounwind uwtable
define internal ptr @spl_array_from_obj(ptr noundef %0) #0 {
  %2 = alloca ptr, align 8
  store ptr %0, ptr %2, align 8
  %3 = load ptr, ptr %2, align 8
  %4 = getelementptr inbounds i8, ptr %3, i64 -88
  ret ptr %4
}

; Function Attrs: nounwind uwtable
define internal ptr @spl_array_write_property(ptr noundef %0, ptr noundef %1, ptr noundef %2, ptr noundef %3) #0 {
  %5 = alloca i32, align 4
  %6 = alloca ptr, align 8
  %7 = alloca ptr, align 8
  %8 = alloca ptr, align 8
  %9 = alloca ptr, align 8
  %10 = alloca ptr, align 8
  %11 = alloca ptr, align 8
  %12 = alloca %struct._zval_struct, align 8
  %13 = alloca ptr, align 8
  %14 = alloca ptr, align 8
  store ptr %0, ptr %7, align 8
  store ptr %1, ptr %8, align 8
  store ptr %2, ptr %9, align 8
  store ptr %3, ptr %10, align 8
  %15 = load ptr, ptr %7, align 8
  %16 = call ptr @spl_array_from_obj(ptr noundef %15)
  store ptr %16, ptr %11, align 8
  %17 = load ptr, ptr %11, align 8
  %18 = getelementptr inbounds %struct._spl_array_object, ptr %17, i32 0, i32 2
  %19 = load i32, ptr %18, align 4
  %20 = and i32 %19, 2
  %21 = icmp ne i32 %20, 0
  br i1 %21, label %22, label %48

22:                                               ; preds = %4
  %23 = load ptr, ptr %7, align 8
  %24 = load ptr, ptr %8, align 8
  %25 = call i32 @zend_std_has_property(ptr noundef %23, ptr noundef %24, i32 noundef 2, ptr noundef null)
  %26 = icmp ne i32 %25, 0
  br i1 %26, label %48, label %27

27:                                               ; preds = %22
  br label %28

28:                                               ; preds = %27
  store ptr %12, ptr %13, align 8
  %29 = load ptr, ptr %8, align 8
  store ptr %29, ptr %14, align 8
  %30 = load ptr, ptr %14, align 8
  %31 = load ptr, ptr %13, align 8
  %32 = getelementptr inbounds %struct._zval_struct, ptr %31, i32 0, i32 0
  store ptr %30, ptr %32, align 8
  %33 = load ptr, ptr %14, align 8
  %34 = getelementptr inbounds %struct._zend_string, ptr %33, i32 0, i32 0
  %35 = getelementptr inbounds %struct._zend_refcounted_h, ptr %34, i32 0, i32 1
  %36 = load i32, ptr %35, align 4
  store i32 %36, ptr %5, align 4
  %37 = load i32, ptr %5, align 4
  %38 = and i32 %37, 1008
  %39 = and i32 %38, 64
  %40 = icmp ne i32 %39, 0
  %41 = select i1 %40, i32 6, i32 262
  %42 = load ptr, ptr %13, align 8
  %43 = getelementptr inbounds %struct._zval_struct, ptr %42, i32 0, i32 1
  store i32 %41, ptr %43, align 8
  br label %44

44:                                               ; preds = %28
  %45 = load ptr, ptr %7, align 8
  %46 = load ptr, ptr %9, align 8
  call void @spl_array_write_dimension(ptr noundef %45, ptr noundef %12, ptr noundef %46)
  %47 = load ptr, ptr %9, align 8
  store ptr %47, ptr %6, align 8
  br label %54

48:                                               ; preds = %22, %4
  %49 = load ptr, ptr %7, align 8
  %50 = load ptr, ptr %8, align 8
  %51 = load ptr, ptr %9, align 8
  %52 = load ptr, ptr %10, align 8
  %53 = call ptr @zend_std_write_property(ptr noundef %49, ptr noundef %50, ptr noundef %51, ptr noundef %52)
  store ptr %53, ptr %6, align 8
  br label %54

54:                                               ; preds = %48, %44
  %55 = load ptr, ptr %6, align 8
  ret ptr %55
}