; Function Attrs: nounwind uwtable
define internal ptr @spl_array_write_property(ptr noundef %0, ptr noundef %1, ptr noundef %2, ptr noundef %3) #0 {
  %5 = alloca %struct._zval_struct, align 8
  %6 = getelementptr inbounds i8, ptr %0, i64 -68
  %7 = load i32, ptr %6, align 4
  %8 = and i32 %7, 2
  %.not = icmp eq i32 %8, 0
  br i1 %.not, label %17, label %9

9:                                                ; preds = %4
  %10 = tail call i32 @zend_std_has_property(ptr noundef nonnull %0, ptr noundef %1, i32 noundef 2, ptr noundef null) #11
  %.not17 = icmp eq i32 %10, 0
  br i1 %.not17, label %11, label %17

11:                                               ; preds = %9
  store ptr %1, ptr %5, align 8
  %12 = getelementptr inbounds i8, ptr %1, i64 4
  %13 = load i32, ptr %12, align 4
  %14 = and i32 %13, 64
  %.not18 = icmp eq i32 %14, 0
  %15 = select i1 %.not18, i32 262, i32 6
  %16 = getelementptr inbounds i8, ptr %5, i64 8
  store i32 %15, ptr %16, align 8
  call fastcc void @spl_array_write_dimension_ex(i32 noundef 1, ptr noundef nonnull %0, ptr noundef nonnull %5, ptr noundef %2)
  br label %19

17:                                               ; preds = %9, %4
  %18 = tail call ptr @zend_std_write_property(ptr noundef nonnull %0, ptr noundef %1, ptr noundef %2, ptr noundef %3) #11
  br label %19

19:                                               ; preds = %17, %11
  %.0 = phi ptr [ %18, %17 ], [ %2, %11 ]
  ret ptr %.0
}